target datalayout = "e-m:e-p270:32:32-p271:32:32-p272:64:64-i64:64-i128:128-f80:128-n8:16:32:64-S128"
target triple = "x86_64-pc-linux-gnu"

%"class.cv::Mat" = type { i32, i32, i32, i32, ptr, ptr, ptr, ptr, ptr, ptr, %"struct.cv::MatSize", %"struct.cv::MatStep" }
%"struct.cv::MatSize" = type { ptr }
%"struct.cv::MatStep" = type { ptr, [2 x i64] }
%"class.cv::MatConstIterator" = type { ptr, i64, ptr, ptr, ptr }

; Function Attrs: inlinehint mustprogress nounwind uwtable
define linkonce_odr hidden noundef nonnull align 4 dereferenceable(4) ptr @_ZNK2cv7MatSizeixEi(ptr noundef nonnull align 8 dereferenceable(8) %0, i32 noundef %1) #4 comdat align 2 {
  %3 = alloca ptr, align 8
  %4 = alloca i32, align 4
  store ptr %0, ptr %3, align 8, !tbaa !51
  store i32 %1, ptr %4, align 4, !tbaa !25
  %5 = load ptr, ptr %3, align 8
  %6 = getelementptr inbounds nuw %"struct.cv::MatSize", ptr %5, i32 0, i32 0
  %7 = load ptr, ptr %6, align 8, !tbaa !53
  %8 = load i32, ptr %4, align 4, !tbaa !25
  %9 = sext i32 %8 to i64
  %10 = getelementptr inbounds i32, ptr %7, i64 %9
  ret ptr %10
}

; Function Attrs: inlinehint mustprogress nounwind uwtable
define linkonce_odr hidden noundef nonnull align 8 dereferenceable(8) ptr @_ZNK2cv7MatStepixEi(ptr noundef nonnull align 8 dereferenceable(24) %0, i32 noundef %1) #4 comdat align 2 {
  %3 = alloca ptr, align 8
  %4 = alloca i32, align 4
  store ptr %0, ptr %3, align 8, !tbaa !55
  store i32 %1, ptr %4, align 4, !tbaa !25
  %5 = load ptr, ptr %3, align 8
  %6 = getelementptr inbounds nuw %"struct.cv::MatStep", ptr %5, i32 0, i32 0
  %7 = load ptr, ptr %6, align 8, !tbaa !57
  %8 = load i32, ptr %4, align 4, !tbaa !25
  %9 = sext i32 %8 to i64
  %10 = getelementptr inbounds i64, ptr %7, i64 %9
  ret ptr %10
}

; Function Attrs: inlinehint mustprogress nounwind uwtable
define linkonce_odr hidden noundef ptr @_ZNK2cv3Mat3ptrEi(ptr noundef nonnull align 8 dereferenceable(96) %0, i32 noundef %1) #4 comdat align 2 {
  %3 = alloca ptr, align 8
  %4 = alloca i32, align 4
  store ptr %0, ptr %3, align 8, !tbaa !24
  store i32 %1, ptr %4, align 4, !tbaa !25
  %5 = load ptr, ptr %3, align 8
  %6 = getelementptr inbounds nuw %"class.cv::Mat", ptr %5, i32 0, i32 4
  %7 = load ptr, ptr %6, align 8, !tbaa !29
  %8 = getelementptr inbounds nuw %"class.cv::Mat", ptr %5, i32 0, i32 11
  %9 = getelementptr inbounds nuw %"struct.cv::MatStep", ptr %8, i32 0, i32 0
  %10 = load ptr, ptr %9, align 8, !tbaa !58
  %11 = getelementptr inbounds i64, ptr %10, i64 0
  %12 = load i64, ptr %11, align 8, !tbaa !41
  %13 = load i32, ptr %4, align 4, !tbaa !25
  %14 = sext i32 %13 to i64
  %15 = mul i64 %12, %14
  %16 = getelementptr inbounds nuw i8, ptr %7, i64 %15
  ret ptr %16
}

; Function Attrs: inlinehint mustprogress nounwind uwtable
define linkonce_odr hidden noundef zeroext i1 @_ZNK2cv3Mat12isContinuousEv(ptr noundef nonnull align 8 dereferenceable(96) %0) #4 comdat align 2 {
  %2 = alloca ptr, align 8
  store ptr %0, ptr %2, align 8, !tbaa !24
  %3 = load ptr, ptr %2, align 8
  %4 = getelementptr inbounds nuw %"class.cv::Mat", ptr %3, i32 0, i32 0
  %5 = load i32, ptr %4, align 8, !tbaa !54
  %6 = and i32 %5, 16384
  %7 = icmp ne i32 %6, 0
  ret i1 %7
}

; Function Attrs: mustprogress uwtable
define noundef i64 @_ZNK2cv16MatConstIterator4lposEv(ptr noundef nonnull align 8 dereferenceable(40) %0) #1 align 2 {
  %2 = alloca i64, align 8
  %3 = alloca ptr, align 8
  %4 = alloca i64, align 8
  %5 = alloca i32, align 4
  %6 = alloca i32, align 4
  %7 = alloca i64, align 8
  %8 = alloca i32, align 4
  %9 = alloca i64, align 8
  %10 = alloca i64, align 8
  %11 = alloca i64, align 8
  store ptr %0, ptr %3, align 8, !tbaa !65
  %12 = load ptr, ptr %3, align 8
  %13 = getelementptr inbounds nuw %"class.cv::MatConstIterator", ptr %12, i32 0, i32 0
  %14 = load ptr, ptr %13, align 8, !tbaa !67
  %15 = icmp ne ptr %14, null
  br i1 %15, label %17, label %16

16:                                               ; preds = %1
  store i64 0, ptr %2, align 8
  br label %112

17:                                               ; preds = %1
  %18 = getelementptr inbounds nuw %"class.cv::MatConstIterator", ptr %12, i32 0, i32 0
  %19 = load ptr, ptr %18, align 8, !tbaa !67
  %20 = call noundef zeroext i1 @_ZNK2cv3Mat12isContinuousEv(ptr noundef nonnull align 8 dereferenceable(96) %19)
  br i1 %20, label %21, label %32

21:                                               ; preds = %17
  %22 = getelementptr inbounds nuw %"class.cv::MatConstIterator", ptr %12, i32 0, i32 2
  %23 = load ptr, ptr %22, align 8, !tbaa !69
  %24 = getelementptr inbounds nuw %"class.cv::MatConstIterator", ptr %12, i32 0, i32 3
  %25 = load ptr, ptr %24, align 8, !tbaa !77
  %26 = ptrtoint ptr %23 to i64
  %27 = ptrtoint ptr %25 to i64
  %28 = sub i64 %26, %27
  %29 = getelementptr inbounds nuw %"class.cv::MatConstIterator", ptr %12, i32 0, i32 1
  %30 = load i64, ptr %29, align 8, !tbaa !70
  %31 = udiv i64 %28, %30
  store i64 %31, ptr %2, align 8
  br label %112

32:                                               ; preds = %17
  call void @llvm.lifetime.start.p0(i64 8, ptr %4) #12
  %33 = getelementptr inbounds nuw %"class.cv::MatConstIterator", ptr %12, i32 0, i32 2
  %34 = load ptr, ptr %33, align 8, !tbaa !69
  %35 = getelementptr inbounds nuw %"class.cv::MatConstIterator", ptr %12, i32 0, i32 0
  %36 = load ptr, ptr %35, align 8, !tbaa !67
  %37 = call noundef ptr @_ZNK2cv3Mat3ptrEi(ptr noundef nonnull align 8 dereferenceable(96) %36, i32 noundef 0)
  %38 = ptrtoint ptr %34 to i64
  %39 = ptrtoint ptr %37 to i64
  %40 = sub i64 %38, %39
  store i64 %40, ptr %4, align 8, !tbaa !41
  call void @llvm.lifetime.start.p0(i64 4, ptr %5) #12
  call void @llvm.lifetime.start.p0(i64 4, ptr %6) #12
  %41 = getelementptr inbounds nuw %"class.cv::MatConstIterator", ptr %12, i32 0, i32 0
  %42 = load ptr, ptr %41, align 8, !tbaa !67
  %43 = getelementptr inbounds nuw %"class.cv::Mat", ptr %42, i32 0, i32 1
  %44 = load i32, ptr %43, align 4, !tbaa !39
  store i32 %44, ptr %6, align 4, !tbaa !25
  %45 = load i32, ptr %6, align 4, !tbaa !25
  %46 = icmp eq i32 %45, 2
  br i1 %46, label %47, label %75

47:                                               ; preds = %32
  call void @llvm.lifetime.start.p0(i64 8, ptr %7) #12
  %48 = load i64, ptr %4, align 8, !tbaa !41
  %49 = getelementptr inbounds nuw %"class.cv::MatConstIterator", ptr %12, i32 0, i32 0
  %50 = load ptr, ptr %49, align 8, !tbaa !67
  %51 = getelementptr inbounds nuw %"class.cv::Mat", ptr %50, i32 0, i32 11
  %52 = call noundef nonnull align 8 dereferenceable(8) ptr @_ZNK2cv7MatStepixEi(ptr noundef nonnull align 8 dereferenceable(24) %51, i32 noundef 0) #12
  %53 = load i64, ptr %52, align 8, !tbaa !41
  %54 = udiv i64 %48, %53
  store i64 %54, ptr %7, align 8, !tbaa !41
  %55 = load i64, ptr %7, align 8, !tbaa !41
  %56 = getelementptr inbounds nuw %"class.cv::MatConstIterator", ptr %12, i32 0, i32 0
  %57 = load ptr, ptr %56, align 8, !tbaa !67
  %58 = getelementptr inbounds nuw %"class.cv::Mat", ptr %57, i32 0, i32 3
  %59 = load i32, ptr %58, align 4, !tbaa !78
  %60 = sext i32 %59 to i64
  %61 = mul nsw i64 %55, %60
  %62 = load i64, ptr %4, align 8, !tbaa !41
  %63 = load i64, ptr %7, align 8, !tbaa !41
  %64 = getelementptr inbounds nuw %"class.cv::MatConstIterator", ptr %12, i32 0, i32 0
  %65 = load ptr, ptr %64, align 8, !tbaa !67
  %66 = getelementptr inbounds nuw %"class.cv::Mat", ptr %65, i32 0, i32 11
  %67 = call noundef nonnull align 8 dereferenceable(8) ptr @_ZNK2cv7MatStepixEi(ptr noundef nonnull align 8 dereferenceable(24) %66, i32 noundef 0) #12
  %68 = load i64, ptr %67, align 8, !tbaa !41
  %69 = mul i64 %63, %68
  %70 = sub i64 %62, %69
  %71 = getelementptr inbounds nuw %"class.cv::MatConstIterator", ptr %12, i32 0, i32 1
  %72 = load i64, ptr %71, align 8, !tbaa !70
  %73 = udiv i64 %70, %72
  %74 = add i64 %61, %73
  store i64 %74, ptr %2, align 8
  store i32 1, ptr %8, align 4
  call void @llvm.lifetime.end.p0(i64 8, ptr %7) #12
  br label %111

75:                                               ; preds = %32
  call void @llvm.lifetime.start.p0(i64 8, ptr %9) #12
  store i64 0, ptr %9, align 8, !tbaa !41
  store i32 0, ptr %5, align 4, !tbaa !25
  br label %76

76:                                               ; preds = %106, %75
  %77 = load i32, ptr %5, align 4, !tbaa !25
  %78 = load i32, ptr %6, align 4, !tbaa !25
  %79 = icmp slt i32 %77, %78
  br i1 %79, label %80, label %109

80:                                               ; preds = %76
  call void @llvm.lifetime.start.p0(i64 8, ptr %10) #12
  %81 = getelementptr inbounds nuw %"class.cv::MatConstIterator", ptr %12, i32 0, i32 0
  %82 = load ptr, ptr %81, align 8, !tbaa !67
  %83 = getelementptr inbounds nuw %"class.cv::Mat", ptr %82, i32 0, i32 11
  %84 = load i32, ptr %5, align 4, !tbaa !25
  %85 = call noundef nonnull align 8 dereferenceable(8) ptr @_ZNK2cv7MatStepixEi(ptr noundef nonnull align 8 dereferenceable(24) %83, i32 noundef %84) #12
  %86 = load i64, ptr %85, align 8, !tbaa !41
  store i64 %86, ptr %10, align 8, !tbaa !41
  call void @llvm.lifetime.start.p0(i64 8, ptr %11) #12
  %87 = load i64, ptr %4, align 8, !tbaa !41
  %88 = load i64, ptr %10, align 8, !tbaa !41
  %89 = udiv i64 %87, %88
  store i64 %89, ptr %11, align 8, !tbaa !41
  %90 = load i64, ptr %11, align 8, !tbaa !41
  %91 = load i64, ptr %10, align 8, !tbaa !41
  %92 = mul i64 %90, %91
  %93 = load i64, ptr %4, align 8, !tbaa !41
  %94 = sub i64 %93, %92
  store i64 %94, ptr %4, align 8, !tbaa !41
  %95 = load i64, ptr %9, align 8, !tbaa !41
  %96 = getelementptr inbounds nuw %"class.cv::MatConstIterator", ptr %12, i32 0, i32 0
  %97 = load ptr, ptr %96, align 8, !tbaa !67
  %98 = getelementptr inbounds nuw %"class.cv::Mat", ptr %97, i32 0, i32 10
  %99 = load i32, ptr %5, align 4, !tbaa !25
  %100 = call noundef nonnull align 4 dereferenceable(4) ptr @_ZNK2cv7MatSizeixEi(ptr noundef nonnull align 8 dereferenceable(8) %98, i32 noundef %99)
  %101 = load i32, ptr %100, align 4, !tbaa !25
  %102 = sext i32 %101 to i64
  %103 = mul nsw i64 %95, %102
  %104 = load i64, ptr %11, align 8, !tbaa !41
  %105 = add i64 %103, %104
  store i64 %105, ptr %9, align 8, !tbaa !41
  call void @llvm.lifetime.end.p0(i64 8, ptr %11) #12
  call void @llvm.lifetime.end.p0(i64 8, ptr %10) #12
  br label %106

106:                                              ; preds = %80
  %107 = load i32, ptr %5, align 4, !tbaa !25
  %108 = add nsw i32 %107, 1
  store i32 %108, ptr %5, align 4, !tbaa !25
  br label %76, !llvm.loop !79

109:                                              ; preds = %76
  %110 = load i64, ptr %9, align 8, !tbaa !41
  store i64 %110, ptr %2, align 8
  store i32 1, ptr %8, align 4
  call void @llvm.lifetime.end.p0(i64 8, ptr %9) #12
  br label %111

111:                                              ; preds = %109, %47
  call void @llvm.lifetime.end.p0(i64 4, ptr %6) #12
  call void @llvm.lifetime.end.p0(i64 4, ptr %5) #12
  call void @llvm.lifetime.end.p0(i64 8, ptr %4) #12
  br label %112

112:                                              ; preds = %111, %21, %16
  %113 = load i64, ptr %2, align 8
  ret i64 %113
}