; Function Attrs: mustprogress nofree norecurse nosync nounwind willreturn memory(read, inaccessiblemem: none) uwtable
define noundef i64 @_ZNK2cv16MatConstIterator4lposEv(ptr noundef nonnull readonly align 8 captures(none) dereferenceable(40) %0) local_unnamed_addr #8 align 2 {
  %2 = load ptr, ptr %0, align 8, !tbaa !57
  %.not = icmp eq ptr %2, null
  br i1 %.not, label %.loopexit, label %3

3:                                                ; preds = %1
  %4 = load i32, ptr %2, align 8, !tbaa !40
  %5 = and i32 %4, 16384
  %.not24 = icmp eq i32 %5, 0
  %6 = getelementptr inbounds nuw i8, ptr %0, i64 16
  %7 = load ptr, ptr %6, align 8, !tbaa !59
  br i1 %.not24, label %17, label %8

8:                                                ; preds = %3
  %9 = getelementptr inbounds nuw i8, ptr %0, i64 24
  %10 = load ptr, ptr %9, align 8, !tbaa !63
  %11 = ptrtoint ptr %7 to i64
  %12 = ptrtoint ptr %10 to i64
  %13 = sub i64 %11, %12
  %14 = getelementptr inbounds nuw i8, ptr %0, i64 8
  %15 = load i64, ptr %14, align 8, !tbaa !61
  %16 = udiv i64 %13, %15
  br label %.loopexit

17:                                               ; preds = %3
  %18 = getelementptr inbounds nuw i8, ptr %2, i64 16
  %19 = load ptr, ptr %18, align 8, !tbaa !27
  %20 = getelementptr inbounds nuw i8, ptr %2, i64 72
  %21 = load ptr, ptr %20, align 8, !tbaa !60
  %22 = ptrtoint ptr %7 to i64
  %23 = ptrtoint ptr %19 to i64
  %24 = sub i64 %22, %23
  %25 = getelementptr inbounds nuw i8, ptr %2, i64 4
  %26 = load i32, ptr %25, align 4, !tbaa !36
  %27 = icmp eq i32 %26, 2
  br i1 %27, label %31, label %.preheader

.preheader:                                       ; preds = %17
  %28 = icmp sgt i32 %26, 0
  br i1 %28, label %.lr.ph, label %.loopexit

.lr.ph:                                           ; preds = %.preheader
  %29 = getelementptr inbounds nuw i8, ptr %2, i64 64
  %30 = load ptr, ptr %29, align 8, !tbaa !37
  %wide.trip.count = zext nneg i32 %26 to i64
  br label %43

31:                                               ; preds = %17
  %32 = load i64, ptr %21, align 8, !tbaa !42
  %33 = udiv i64 %24, %32
  %34 = getelementptr inbounds nuw i8, ptr %2, i64 12
  %35 = load i32, ptr %34, align 4, !tbaa !64
  %36 = sext i32 %35 to i64
  %37 = mul nsw i64 %33, %36
  %38 = mul i64 %33, %32
  %.recomposed = urem i64 %24, %32
  %39 = getelementptr inbounds nuw i8, ptr %0, i64 8
  %40 = load i64, ptr %39, align 8, !tbaa !61
  %41 = udiv i64 %.recomposed, %40
  %42 = add i64 %37, %41
  br label %.loopexit

43:                                               ; preds = %.lr.ph, %43
  %indvars.iv = phi i64 [ 0, %.lr.ph ], [ %indvars.iv.next, %43 ]
  %.01927 = phi i64 [ %24, %.lr.ph ], [ %.recomposed29, %43 ]
  %.02026 = phi i64 [ 0, %.lr.ph ], [ %52, %43 ]
  %44 = getelementptr inbounds nuw i64, ptr %21, i64 %indvars.iv
  %45 = load i64, ptr %44, align 8, !tbaa !42
  %46 = udiv i64 %.01927, %45
  %47 = mul i64 %46, %45
  %.recomposed29 = urem i64 %.01927, %45
  %48 = getelementptr inbounds nuw i32, ptr %30, i64 %indvars.iv
  %49 = load i32, ptr %48, align 4, !tbaa !38
  %50 = sext i32 %49 to i64
  %51 = mul nsw i64 %.02026, %50
  %52 = add i64 %51, %46
  %indvars.iv.next = add nuw nsw i64 %indvars.iv, 1
  %exitcond.not = icmp eq i64 %indvars.iv.next, %wide.trip.count
  br i1 %exitcond.not, label %.loopexit, label %43, !llvm.loop !65

.loopexit:                                        ; preds = %43, %.preheader, %31, %1, %8
  %.0 = phi i64 [ %16, %8 ], [ 0, %1 ], [ %42, %31 ], [ 0, %.preheader ], [ %52, %43 ]
  ret i64 %.0
}